target datalayout = "e-m:e-p270:32:32-p271:32:32-p272:64:64-i64:64-i128:128-f80:128-n8:16:32:64-S128"
target triple = "x86_64-unknown-linux-gnu"

%class.vector.41 = type { ptr }

; Function Attrs: mustprogress nounwind uwtable
define linkonce_odr hidden noundef i32 @_ZNK6vectorIP10quantifierLb0EjE4sizeEv(ptr noundef nonnull align 8 dereferenceable(8) %this) #5 comdat align 2 {
entry:
  %retval = alloca i32, align 4
  %this.addr = alloca ptr, align 8
  store ptr %this, ptr %this.addr, align 8
  %this1 = load ptr, ptr %this.addr, align 8
  %m_data = getelementptr inbounds %class.vector.41, ptr %this1, i32 0, i32 0
  %0 = load ptr, ptr %m_data, align 8
  %cmp = icmp eq ptr %0, null
  br i1 %cmp, label %if.then, label %if.end

if.then:                                          ; preds = %entry
  store i32 0, ptr %retval, align 4
  br label %return

if.end:                                           ; preds = %entry
  %m_data2 = getelementptr inbounds %class.vector.41, ptr %this1, i32 0, i32 0
  %1 = load ptr, ptr %m_data2, align 8
  %arrayidx = getelementptr inbounds i32, ptr %1, i64 -1
  %2 = load i32, ptr %arrayidx, align 4
  store i32 %2, ptr %retval, align 4
  br label %return

return:                                           ; preds = %if.end, %if.then
  %3 = load i32, ptr %retval, align 4
  ret i32 %3
}

; Function Attrs: mustprogress uwtable
define linkonce_odr hidden noundef nonnull align 8 dereferenceable(8) ptr @_ZN6vectorIP10quantifierLb0EjE9push_backERKS1_(ptr noundef nonnull align 8 dereferenceable(8) %this, ptr noundef nonnull align 8 dereferenceable(8) %elem) #4 comdat align 2 {
entry:
  %this.addr = alloca ptr, align 8
  %elem.addr = alloca ptr, align 8
  store ptr %this, ptr %this.addr, align 8
  store ptr %elem, ptr %elem.addr, align 8
  %this1 = load ptr, ptr %this.addr, align 8
  %m_data = getelementptr inbounds %class.vector.41, ptr %this1, i32 0, i32 0
  %0 = load ptr, ptr %m_data, align 8
  %cmp = icmp eq ptr %0, null
  br i1 %cmp, label %if.then, label %lor.lhs.false

lor.lhs.false:                                    ; preds = %entry
  %m_data2 = getelementptr inbounds %class.vector.41, ptr %this1, i32 0, i32 0
  %1 = load ptr, ptr %m_data2, align 8
  %arrayidx = getelementptr inbounds i32, ptr %1, i64 -1
  %2 = load i32, ptr %arrayidx, align 4
  %m_data3 = getelementptr inbounds %class.vector.41, ptr %this1, i32 0, i32 0
  %3 = load ptr, ptr %m_data3, align 8
  %arrayidx4 = getelementptr inbounds i32, ptr %3, i64 -2
  %4 = load i32, ptr %arrayidx4, align 4
  %cmp5 = icmp eq i32 %2, %4
  br i1 %cmp5, label %if.then, label %if.end

if.then:                                          ; preds = %lor.lhs.false, %entry
  call void @_ZN6vectorIP10quantifierLb0EjE13expand_vectorEv(ptr noundef nonnull align 8 dereferenceable(8) %this1)
  br label %if.end

if.end:                                           ; preds = %if.then, %lor.lhs.false
  %m_data6 = getelementptr inbounds %class.vector.41, ptr %this1, i32 0, i32 0
  %5 = load ptr, ptr %m_data6, align 8
  %m_data7 = getelementptr inbounds %class.vector.41, ptr %this1, i32 0, i32 0
  %6 = load ptr, ptr %m_data7, align 8
  %arrayidx8 = getelementptr inbounds i32, ptr %6, i64 -1
  %7 = load i32, ptr %arrayidx8, align 4
  %idx.ext = zext i32 %7 to i64
  %add.ptr = getelementptr inbounds ptr, ptr %5, i64 %idx.ext
  %8 = load ptr, ptr %elem.addr, align 8
  %9 = load ptr, ptr %8, align 8
  store ptr %9, ptr %add.ptr, align 8
  %m_data9 = getelementptr inbounds %class.vector.41, ptr %this1, i32 0, i32 0
  %10 = load ptr, ptr %m_data9, align 8
  %arrayidx10 = getelementptr inbounds i32, ptr %10, i64 -1
  %11 = load i32, ptr %arrayidx10, align 4
  %inc = add i32 %11, 1
  store i32 %inc, ptr %arrayidx10, align 4
  ret ptr %this1
}

; Function Attrs: mustprogress uwtable
define linkonce_odr hidden noundef ptr @_ZNK6vectorIP10quantifierLb0EjE3endEv(ptr noundef nonnull align 8 dereferenceable(8) %this) #4 comdat align 2 {
entry:
  %this.addr = alloca ptr, align 8
  store ptr %this, ptr %this.addr, align 8
  %this1 = load ptr, ptr %this.addr, align 8
  %m_data = getelementptr inbounds %class.vector.41, ptr %this1, i32 0, i32 0
  %0 = load ptr, ptr %m_data, align 8
  %call = call noundef i32 @_ZNK6vectorIP10quantifierLb0EjE4sizeEv(ptr noundef nonnull align 8 dereferenceable(8) %this1)
  %idx.ext = zext i32 %call to i64
  %add.ptr = getelementptr inbounds ptr, ptr %0, i64 %idx.ext
  ret ptr %add.ptr
}

; Function Attrs: mustprogress nounwind uwtable
define linkonce_odr hidden noundef ptr @_ZNK6vectorIP10quantifierLb0EjE5beginEv(ptr noundef nonnull align 8 dereferenceable(8) %this) #5 comdat align 2 {
entry:
  %this.addr = alloca ptr, align 8
  store ptr %this, ptr %this.addr, align 8
  %this1 = load ptr, ptr %this.addr, align 8
  %m_data = getelementptr inbounds %class.vector.41, ptr %this1, i32 0, i32 0
  %0 = load ptr, ptr %m_data, align 8
  ret ptr %0
}

; Function Attrs: mustprogress uwtable
define hidden noundef zeroext i1 @_ZN19simple_macro_solver7processERK10ptr_vectorI10quantifierERS2_S5_(ptr noundef nonnull align 8 dereferenceable(32) %this, ptr noundef nonnull align 8 dereferenceable(8) %qs, ptr noundef nonnull align 8 dereferenceable(8) %new_qs, ptr noundef nonnull align 8 dereferenceable(8) %residue) unnamed_addr #4 align 2 {
entry:
  %this.addr = alloca ptr, align 8
  %qs.addr = alloca ptr, align 8
  %new_qs.addr = alloca ptr, align 8
  %residue.addr = alloca ptr, align 8
  %removed = alloca i8, align 1
  %__range1 = alloca ptr, align 8
  %__begin1 = alloca ptr, align 8
  %__end1 = alloca ptr, align 8
  %q = alloca ptr, align 8
  store ptr %this, ptr %this.addr, align 8
  store ptr %qs, ptr %qs.addr, align 8
  store ptr %new_qs, ptr %new_qs.addr, align 8
  store ptr %residue, ptr %residue.addr, align 8
  %this1 = load ptr, ptr %this.addr, align 8
  store i8 0, ptr %removed, align 1
  %0 = load ptr, ptr %qs.addr, align 8
  store ptr %0, ptr %__range1, align 8
  %1 = load ptr, ptr %__range1, align 8
  %call = call noundef ptr @_ZNK6vectorIP10quantifierLb0EjE5beginEv(ptr noundef nonnull align 8 dereferenceable(8) %1)
  store ptr %call, ptr %__begin1, align 8
  %2 = load ptr, ptr %__range1, align 8
  %call2 = call noundef ptr @_ZNK6vectorIP10quantifierLb0EjE3endEv(ptr noundef nonnull align 8 dereferenceable(8) %2)
  store ptr %call2, ptr %__end1, align 8
  br label %for.cond

for.cond:                                         ; preds = %for.inc, %entry
  %3 = load ptr, ptr %__begin1, align 8
  %4 = load ptr, ptr %__end1, align 8
  %cmp = icmp ne ptr %3, %4
  br i1 %cmp, label %for.body, label %for.end

for.body:                                         ; preds = %for.cond
  %5 = load ptr, ptr %__begin1, align 8
  %6 = load ptr, ptr %5, align 8
  store ptr %6, ptr %q, align 8
  %7 = load ptr, ptr %q, align 8
  %8 = load ptr, ptr %qs.addr, align 8
  %call3 = call noundef zeroext i1 @_ZN19simple_macro_solver7processEP10quantifierRK10ptr_vectorIS0_E(ptr noundef nonnull align 8 dereferenceable(32) %this1, ptr noundef %7, ptr noundef nonnull align 8 dereferenceable(8) %8)
  br i1 %call3, label %if.then, label %if.else

if.then:                                          ; preds = %for.body
  store i8 1, ptr %removed, align 1
  br label %if.end

if.else:                                          ; preds = %for.body
  %9 = load ptr, ptr %new_qs.addr, align 8
  %call4 = call noundef nonnull align 8 dereferenceable(8) ptr @_ZN6vectorIP10quantifierLb0EjE9push_backERKS1_(ptr noundef nonnull align 8 dereferenceable(8) %9, ptr noundef nonnull align 8 dereferenceable(8) %q)
  br label %if.end

if.end:                                           ; preds = %if.else, %if.then
  br label %for.inc

for.inc:                                          ; preds = %if.end
  %10 = load ptr, ptr %__begin1, align 8
  %incdec.ptr = getelementptr inbounds ptr, ptr %10, i32 1
  store ptr %incdec.ptr, ptr %__begin1, align 8
  br label %for.cond

for.end:                                          ; preds = %for.cond
  %11 = load i8, ptr %removed, align 1
  %tobool = trunc i8 %11 to i1
  ret i1 %tobool
}