; Function Attrs: mustprogress uwtable
define hidden noundef zeroext i1 @_ZN19simple_macro_solver7processERK10ptr_vectorI10quantifierERS2_S5_(ptr nocapture noundef nonnull readonly align 8 dereferenceable(32) %this, ptr nocapture noundef nonnull readonly align 8 dereferenceable(8) %qs, ptr noundef nonnull align 8 dereferenceable(8) %new_qs, ptr nocapture nonnull readnone align 8 %residue) unnamed_addr #3 align 2 {
entry:
  %0 = load ptr, ptr %qs, align 8
  %cmp.i.i = icmp eq ptr %0, null
  br i1 %cmp.i.i, label %for.end, label %_ZNK6vectorIP10quantifierLb0EjE3endEv.exit

_ZNK6vectorIP10quantifierLb0EjE3endEv.exit:       ; preds = %entry
  %arrayidx.i.i = getelementptr inbounds i8, ptr %0, i64 -4
  %1 = load i32, ptr %arrayidx.i.i, align 4
  %2 = zext i32 %1 to i64
  %add.ptr.i = getelementptr inbounds ptr, ptr %0, i64 %2
  %cmp.not6 = icmp eq i32 %1, 0
  br i1 %cmp.not6, label %for.end, label %for.body

for.body:                                         ; preds = %_ZNK6vectorIP10quantifierLb0EjE3endEv.exit, %for.inc
  %removed.08 = phi i8 [ %removed.1, %for.inc ], [ 0, %_ZNK6vectorIP10quantifierLb0EjE3endEv.exit ]
  %__begin1.07 = phi ptr [ %incdec.ptr, %for.inc ], [ %0, %_ZNK6vectorIP10quantifierLb0EjE3endEv.exit ]
  %3 = load ptr, ptr %__begin1.07, align 8
  %call3 = tail call noundef zeroext i1 @_ZN19simple_macro_solver7processEP10quantifierRK10ptr_vectorIS0_E(ptr noundef nonnull align 8 dereferenceable(32) %this, ptr noundef %3, ptr noundef nonnull align 8 dereferenceable(8) %qs)
  br i1 %call3, label %for.inc, label %if.else

if.else:                                          ; preds = %for.body
  %4 = load ptr, ptr %new_qs, align 8
  %cmp.i = icmp eq ptr %4, null
  br i1 %cmp.i, label %if.then.i, label %lor.lhs.false.i

lor.lhs.false.i:                                  ; preds = %if.else
  %arrayidx.i = getelementptr inbounds i8, ptr %4, i64 -4
  %5 = load i32, ptr %arrayidx.i, align 4
  %arrayidx4.i = getelementptr inbounds i8, ptr %4, i64 -8
  %6 = load i32, ptr %arrayidx4.i, align 4
  %cmp5.i = icmp eq i32 %5, %6
  br i1 %cmp5.i, label %if.then.i, label %_ZN6vectorIP10quantifierLb0EjE9push_backERKS1_.exit

if.then.i:                                        ; preds = %lor.lhs.false.i, %if.else
  tail call void @_ZN6vectorIP10quantifierLb0EjE13expand_vectorEv(ptr noundef nonnull align 8 dereferenceable(8) %new_qs)
  %.pre.i = load ptr, ptr %new_qs, align 8
  %arrayidx8.phi.trans.insert.i = getelementptr inbounds i8, ptr %.pre.i, i64 -4
  %.pre1.i = load i32, ptr %arrayidx8.phi.trans.insert.i, align 4
  br label %_ZN6vectorIP10quantifierLb0EjE9push_backERKS1_.exit

_ZN6vectorIP10quantifierLb0EjE9push_backERKS1_.exit: ; preds = %lor.lhs.false.i, %if.then.i
  %7 = phi i32 [ %.pre1.i, %if.then.i ], [ %5, %lor.lhs.false.i ]
  %8 = phi ptr [ %.pre.i, %if.then.i ], [ %4, %lor.lhs.false.i ]
  %idx.ext.i = zext i32 %7 to i64
  %add.ptr.i5 = getelementptr inbounds ptr, ptr %8, i64 %idx.ext.i
  store ptr %3, ptr %add.ptr.i5, align 8
  %9 = load ptr, ptr %new_qs, align 8
  %arrayidx10.i = getelementptr inbounds i8, ptr %9, i64 -4
  %10 = load i32, ptr %arrayidx10.i, align 4
  %inc.i = add i32 %10, 1
  store i32 %inc.i, ptr %arrayidx10.i, align 4
  br label %for.inc

for.inc:                                          ; preds = %for.body, %_ZN6vectorIP10quantifierLb0EjE9push_backERKS1_.exit
  %removed.1 = phi i8 [ %removed.08, %_ZN6vectorIP10quantifierLb0EjE9push_backERKS1_.exit ], [ 1, %for.body ]
  %incdec.ptr = getelementptr inbounds i8, ptr %__begin1.07, i64 8
  %cmp.not = icmp eq ptr %incdec.ptr, %add.ptr.i
  br i1 %cmp.not, label %for.end.loopexit, label %for.body

for.end.loopexit:                                 ; preds = %for.inc
  %11 = and i8 %removed.1, 1
  %12 = icmp ne i8 %11, 0
  br label %for.end

for.end:                                          ; preds = %entry, %for.end.loopexit, %_ZNK6vectorIP10quantifierLb0EjE3endEv.exit
  %removed.0.lcssa = phi i1 [ false, %_ZNK6vectorIP10quantifierLb0EjE3endEv.exit ], [ %12, %for.end.loopexit ], [ false, %entry ]
  ret i1 %removed.0.lcssa
}